ARM GAS  /tmp/ccpbXR1M.s 			page 1


   1              		.cpu cortex-m4
   2              		.arch armv7e-m
   3              		.fpu fpv4-sp-d16
   4              		.eabi_attribute 27, 1
   5              		.eabi_attribute 28, 1
   6              		.eabi_attribute 20, 1
   7              		.eabi_attribute 21, 1
   8              		.eabi_attribute 23, 3
   9              		.eabi_attribute 24, 1
  10              		.eabi_attribute 25, 1
  11              		.eabi_attribute 26, 1
  12              		.eabi_attribute 30, 1
  13              		.eabi_attribute 34, 1
  14              		.eabi_attribute 18, 4
  15              		.file	"traffic_light_functions.c"
  16              		.text
  17              	.Ltext0:
  18              		.cfi_sections	.debug_frame
  19              		.section	.text.trafficLight,"ax",%progbits
  20              		.align	1
  21              		.global	trafficLight
  22              		.syntax unified
  23              		.thumb
  24              		.thumb_func
  26              	trafficLight:
  27              	.LFB133:
  28              		.file 1 "my_library/Src/traffic_light_functions.c"
   1:my_library/Src/traffic_light_functions.c **** /*
   2:my_library/Src/traffic_light_functions.c **** 
   3:my_library/Src/traffic_light_functions.c ****  * traffic_light_functions.c
   4:my_library/Src/traffic_light_functions.c ****  *
   5:my_library/Src/traffic_light_functions.c ****  *  Created on: Dec 27, 2021
   6:my_library/Src/traffic_light_functions.c ****  *      Author: Rouen de la O
   7:my_library/Src/traffic_light_functions.c ****  */
   8:my_library/Src/traffic_light_functions.c **** 
   9:my_library/Src/traffic_light_functions.c **** #include "traffic_light_functions.h"
  10:my_library/Src/traffic_light_functions.c **** 
  11:my_library/Src/traffic_light_functions.c **** 
  12:my_library/Src/traffic_light_functions.c **** void trafficLight (TL_TaskData tl_taskData) {
  29              		.loc 1 12 45 view -0
  30              		.cfi_startproc
  31              		@ args = 0, pretend = 0, frame = 16
  32              		@ frame_needed = 0, uses_anonymous_args = 0
  33 0000 10B5     		push	{r4, lr}
  34              	.LCFI0:
  35              		.cfi_def_cfa_offset 8
  36              		.cfi_offset 4, -8
  37              		.cfi_offset 14, -4
  38 0002 84B0     		sub	sp, sp, #16
  39              	.LCFI1:
  40              		.cfi_def_cfa_offset 24
  41 0004 04AB     		add	r3, sp, #16
  42 0006 03E90700 		stmdb	r3, {r0, r1, r2}
  13:my_library/Src/traffic_light_functions.c ****    switch(*(tl_taskData.TL_State)) { // transitions
  43              		.loc 1 13 4 view .LVU1
  44              		.loc 1 13 24 is_stmt 0 view .LVU2
  45 000a 0B46     		mov	r3, r1
ARM GAS  /tmp/ccpbXR1M.s 			page 2


  46              		.loc 1 13 11 view .LVU3
  47 000c 0A78     		ldrb	r2, [r1]	@ zero_extendqisi2
  48              		.loc 1 13 4 view .LVU4
  49 000e 042A     		cmp	r2, #4
  50 0010 38D8     		bhi	.L2
  51 0012 DFE802F0 		tbb	[pc, r2]
  52              	.L4:
  53 0016 03       		.byte	(.L8-.L4)/2
  54 0017 0D       		.byte	(.L7-.L4)/2
  55 0018 16       		.byte	(.L6-.L4)/2
  56 0019 1F       		.byte	(.L5-.L4)/2
  57 001a 28       		.byte	(.L3-.L4)/2
  58 001b 00       		.p2align 1
  59              	.L8:
  14:my_library/Src/traffic_light_functions.c ****       case TL_SMStart:
  15:my_library/Src/traffic_light_functions.c ****     	  *(tl_taskData.TL_State) = TL_off;
  60              		.loc 1 15 8 is_stmt 1 view .LVU5
  61              		.loc 1 15 32 is_stmt 0 view .LVU6
  62 001c 0122     		movs	r2, #1
  63 001e 1A70     		strb	r2, [r3]
  16:my_library/Src/traffic_light_functions.c ****          break;
  64              		.loc 1 16 10 is_stmt 1 view .LVU7
  65              	.L9:
  17:my_library/Src/traffic_light_functions.c ****       case TL_off:
  18:my_library/Src/traffic_light_functions.c ****          if (*(tl_taskData.enable)) {
  19:my_library/Src/traffic_light_functions.c ****         	 *(tl_taskData.TL_State) = TL_stop;
  20:my_library/Src/traffic_light_functions.c ****             break;
  21:my_library/Src/traffic_light_functions.c ****          }
  22:my_library/Src/traffic_light_functions.c ****          else {
  23:my_library/Src/traffic_light_functions.c ****         	 *(tl_taskData.TL_State) = TL_off;
  24:my_library/Src/traffic_light_functions.c ****             break;
  25:my_library/Src/traffic_light_functions.c ****          }
  26:my_library/Src/traffic_light_functions.c ****       case TL_stop:
  27:my_library/Src/traffic_light_functions.c ****          if (*(tl_taskData.enable)) {
  28:my_library/Src/traffic_light_functions.c ****         	 *(tl_taskData.TL_State) = TL_go;
  29:my_library/Src/traffic_light_functions.c ****             break;
  30:my_library/Src/traffic_light_functions.c ****          }
  31:my_library/Src/traffic_light_functions.c ****          else {
  32:my_library/Src/traffic_light_functions.c ****         	 *(tl_taskData.TL_State) = TL_off;
  33:my_library/Src/traffic_light_functions.c ****             break;
  34:my_library/Src/traffic_light_functions.c ****          }
  35:my_library/Src/traffic_light_functions.c ****       case TL_warn:
  36:my_library/Src/traffic_light_functions.c ****          if (!(*(tl_taskData.enable))) {
  37:my_library/Src/traffic_light_functions.c ****         	 *(tl_taskData.TL_State) = TL_off;
  38:my_library/Src/traffic_light_functions.c ****             break;
  39:my_library/Src/traffic_light_functions.c ****          }
  40:my_library/Src/traffic_light_functions.c ****          else {
  41:my_library/Src/traffic_light_functions.c ****         	 *(tl_taskData.TL_State) = TL_stop;
  42:my_library/Src/traffic_light_functions.c ****             break;
  43:my_library/Src/traffic_light_functions.c ****          }
  44:my_library/Src/traffic_light_functions.c ****       case TL_go:
  45:my_library/Src/traffic_light_functions.c ****          if (!(*(tl_taskData.enable))) {
  46:my_library/Src/traffic_light_functions.c ****         	 *(tl_taskData.TL_State) = TL_off;
  47:my_library/Src/traffic_light_functions.c ****             break;
  48:my_library/Src/traffic_light_functions.c ****          }
  49:my_library/Src/traffic_light_functions.c ****          else if (*(tl_taskData.pedestrian)) { // test if button PL1 was pressed
  50:my_library/Src/traffic_light_functions.c ****         	 *(tl_taskData.TL_State) = TL_warn;
ARM GAS  /tmp/ccpbXR1M.s 			page 3


  51:my_library/Src/traffic_light_functions.c ****             break;
  52:my_library/Src/traffic_light_functions.c ****          }
  53:my_library/Src/traffic_light_functions.c ****          else {
  54:my_library/Src/traffic_light_functions.c ****         	 *(tl_taskData.TL_State) = TL_stop;
  55:my_library/Src/traffic_light_functions.c ****             break;
  56:my_library/Src/traffic_light_functions.c ****          }
  57:my_library/Src/traffic_light_functions.c ****       default:
  58:my_library/Src/traffic_light_functions.c ****     	  *(tl_taskData.TL_State) = TL_SMStart;
  59:my_library/Src/traffic_light_functions.c ****          break;
  60:my_library/Src/traffic_light_functions.c ****    } // transitions
  61:my_library/Src/traffic_light_functions.c **** 
  62:my_library/Src/traffic_light_functions.c ****    switch(*(tl_taskData.TL_State)) { // state actions
  66              		.loc 1 62 4 view .LVU8
  67              		.loc 1 62 11 is_stmt 0 view .LVU9
  68 0020 1B78     		ldrb	r3, [r3]	@ zero_extendqisi2
  69              		.loc 1 62 4 view .LVU10
  70 0022 013B     		subs	r3, r3, #1
  71 0024 032B     		cmp	r3, #3
  72 0026 43D8     		bhi	.L1
  73 0028 DFE803F0 		tbb	[pc, r3]
  74              	.L17:
  75 002c 2F       		.byte	(.L20-.L17)/2
  76 002d 44       		.byte	(.L19-.L17)/2
  77 002e 58       		.byte	(.L18-.L17)/2
  78 002f 6C       		.byte	(.L16-.L17)/2
  79              		.p2align 1
  80              	.L7:
  18:my_library/Src/traffic_light_functions.c ****         	 *(tl_taskData.TL_State) = TL_stop;
  81              		.loc 1 18 10 is_stmt 1 view .LVU11
  18:my_library/Src/traffic_light_functions.c ****         	 *(tl_taskData.TL_State) = TL_stop;
  82              		.loc 1 18 27 is_stmt 0 view .LVU12
  83 0030 019A     		ldr	r2, [sp, #4]
  18:my_library/Src/traffic_light_functions.c ****         	 *(tl_taskData.TL_State) = TL_stop;
  84              		.loc 1 18 14 view .LVU13
  85 0032 1268     		ldr	r2, [r2]
  18:my_library/Src/traffic_light_functions.c ****         	 *(tl_taskData.TL_State) = TL_stop;
  86              		.loc 1 18 13 view .LVU14
  87 0034 12B1     		cbz	r2, .L10
  19:my_library/Src/traffic_light_functions.c ****             break;
  88              		.loc 1 19 11 is_stmt 1 view .LVU15
  19:my_library/Src/traffic_light_functions.c ****             break;
  89              		.loc 1 19 35 is_stmt 0 view .LVU16
  90 0036 0222     		movs	r2, #2
  91 0038 1A70     		strb	r2, [r3]
  20:my_library/Src/traffic_light_functions.c ****          }
  92              		.loc 1 20 13 is_stmt 1 view .LVU17
  93 003a F1E7     		b	.L9
  94              	.L10:
  23:my_library/Src/traffic_light_functions.c ****             break;
  95              		.loc 1 23 11 view .LVU18
  23:my_library/Src/traffic_light_functions.c ****             break;
  96              		.loc 1 23 35 is_stmt 0 view .LVU19
  97 003c 0122     		movs	r2, #1
  98 003e 1A70     		strb	r2, [r3]
  24:my_library/Src/traffic_light_functions.c ****          }
  99              		.loc 1 24 13 is_stmt 1 view .LVU20
 100 0040 EEE7     		b	.L9
ARM GAS  /tmp/ccpbXR1M.s 			page 4


 101              	.L6:
  27:my_library/Src/traffic_light_functions.c ****         	 *(tl_taskData.TL_State) = TL_go;
 102              		.loc 1 27 10 view .LVU21
  27:my_library/Src/traffic_light_functions.c ****         	 *(tl_taskData.TL_State) = TL_go;
 103              		.loc 1 27 27 is_stmt 0 view .LVU22
 104 0042 019A     		ldr	r2, [sp, #4]
  27:my_library/Src/traffic_light_functions.c ****         	 *(tl_taskData.TL_State) = TL_go;
 105              		.loc 1 27 14 view .LVU23
 106 0044 1268     		ldr	r2, [r2]
  27:my_library/Src/traffic_light_functions.c ****         	 *(tl_taskData.TL_State) = TL_go;
 107              		.loc 1 27 13 view .LVU24
 108 0046 12B1     		cbz	r2, .L11
  28:my_library/Src/traffic_light_functions.c ****             break;
 109              		.loc 1 28 11 is_stmt 1 view .LVU25
  28:my_library/Src/traffic_light_functions.c ****             break;
 110              		.loc 1 28 35 is_stmt 0 view .LVU26
 111 0048 0422     		movs	r2, #4
 112 004a 1A70     		strb	r2, [r3]
  29:my_library/Src/traffic_light_functions.c ****          }
 113              		.loc 1 29 13 is_stmt 1 view .LVU27
 114 004c E8E7     		b	.L9
 115              	.L11:
  32:my_library/Src/traffic_light_functions.c ****             break;
 116              		.loc 1 32 11 view .LVU28
  32:my_library/Src/traffic_light_functions.c ****             break;
 117              		.loc 1 32 35 is_stmt 0 view .LVU29
 118 004e 0122     		movs	r2, #1
 119 0050 1A70     		strb	r2, [r3]
  33:my_library/Src/traffic_light_functions.c ****          }
 120              		.loc 1 33 13 is_stmt 1 view .LVU30
 121 0052 E5E7     		b	.L9
 122              	.L5:
  36:my_library/Src/traffic_light_functions.c ****         	 *(tl_taskData.TL_State) = TL_off;
 123              		.loc 1 36 10 view .LVU31
  36:my_library/Src/traffic_light_functions.c ****         	 *(tl_taskData.TL_State) = TL_off;
 124              		.loc 1 36 29 is_stmt 0 view .LVU32
 125 0054 019A     		ldr	r2, [sp, #4]
  36:my_library/Src/traffic_light_functions.c ****         	 *(tl_taskData.TL_State) = TL_off;
 126              		.loc 1 36 16 view .LVU33
 127 0056 1268     		ldr	r2, [r2]
  36:my_library/Src/traffic_light_functions.c ****         	 *(tl_taskData.TL_State) = TL_off;
 128              		.loc 1 36 13 view .LVU34
 129 0058 12B9     		cbnz	r2, .L12
  37:my_library/Src/traffic_light_functions.c ****             break;
 130              		.loc 1 37 11 is_stmt 1 view .LVU35
  37:my_library/Src/traffic_light_functions.c ****             break;
 131              		.loc 1 37 35 is_stmt 0 view .LVU36
 132 005a 0122     		movs	r2, #1
 133 005c 1A70     		strb	r2, [r3]
  38:my_library/Src/traffic_light_functions.c ****          }
 134              		.loc 1 38 13 is_stmt 1 view .LVU37
 135 005e DFE7     		b	.L9
 136              	.L12:
  41:my_library/Src/traffic_light_functions.c ****             break;
 137              		.loc 1 41 11 view .LVU38
  41:my_library/Src/traffic_light_functions.c ****             break;
 138              		.loc 1 41 35 is_stmt 0 view .LVU39
ARM GAS  /tmp/ccpbXR1M.s 			page 5


 139 0060 0222     		movs	r2, #2
 140 0062 1A70     		strb	r2, [r3]
  42:my_library/Src/traffic_light_functions.c ****          }
 141              		.loc 1 42 13 is_stmt 1 view .LVU40
 142 0064 DCE7     		b	.L9
 143              	.L3:
  45:my_library/Src/traffic_light_functions.c ****         	 *(tl_taskData.TL_State) = TL_off;
 144              		.loc 1 45 10 view .LVU41
  45:my_library/Src/traffic_light_functions.c ****         	 *(tl_taskData.TL_State) = TL_off;
 145              		.loc 1 45 29 is_stmt 0 view .LVU42
 146 0066 019A     		ldr	r2, [sp, #4]
  45:my_library/Src/traffic_light_functions.c ****         	 *(tl_taskData.TL_State) = TL_off;
 147              		.loc 1 45 16 view .LVU43
 148 0068 1268     		ldr	r2, [r2]
  45:my_library/Src/traffic_light_functions.c ****         	 *(tl_taskData.TL_State) = TL_off;
 149              		.loc 1 45 13 view .LVU44
 150 006a 12B9     		cbnz	r2, .L13
  46:my_library/Src/traffic_light_functions.c ****             break;
 151              		.loc 1 46 11 is_stmt 1 view .LVU45
  46:my_library/Src/traffic_light_functions.c ****             break;
 152              		.loc 1 46 35 is_stmt 0 view .LVU46
 153 006c 0122     		movs	r2, #1
 154 006e 1A70     		strb	r2, [r3]
  47:my_library/Src/traffic_light_functions.c ****          }
 155              		.loc 1 47 13 is_stmt 1 view .LVU47
 156 0070 D6E7     		b	.L9
 157              	.L13:
  49:my_library/Src/traffic_light_functions.c ****         	 *(tl_taskData.TL_State) = TL_warn;
 158              		.loc 1 49 15 view .LVU48
  49:my_library/Src/traffic_light_functions.c ****         	 *(tl_taskData.TL_State) = TL_warn;
 159              		.loc 1 49 32 is_stmt 0 view .LVU49
 160 0072 039A     		ldr	r2, [sp, #12]
  49:my_library/Src/traffic_light_functions.c ****         	 *(tl_taskData.TL_State) = TL_warn;
 161              		.loc 1 49 19 view .LVU50
 162 0074 1268     		ldr	r2, [r2]
  49:my_library/Src/traffic_light_functions.c ****         	 *(tl_taskData.TL_State) = TL_warn;
 163              		.loc 1 49 18 view .LVU51
 164 0076 12B1     		cbz	r2, .L14
  50:my_library/Src/traffic_light_functions.c ****             break;
 165              		.loc 1 50 11 is_stmt 1 view .LVU52
  50:my_library/Src/traffic_light_functions.c ****             break;
 166              		.loc 1 50 35 is_stmt 0 view .LVU53
 167 0078 0322     		movs	r2, #3
 168 007a 1A70     		strb	r2, [r3]
  51:my_library/Src/traffic_light_functions.c ****          }
 169              		.loc 1 51 13 is_stmt 1 view .LVU54
 170 007c D0E7     		b	.L9
 171              	.L14:
  54:my_library/Src/traffic_light_functions.c ****             break;
 172              		.loc 1 54 11 view .LVU55
  54:my_library/Src/traffic_light_functions.c ****             break;
 173              		.loc 1 54 35 is_stmt 0 view .LVU56
 174 007e 0222     		movs	r2, #2
 175 0080 1A70     		strb	r2, [r3]
  55:my_library/Src/traffic_light_functions.c ****          }
 176              		.loc 1 55 13 is_stmt 1 view .LVU57
 177 0082 CDE7     		b	.L9
ARM GAS  /tmp/ccpbXR1M.s 			page 6


 178              	.L2:
  58:my_library/Src/traffic_light_functions.c ****          break;
 179              		.loc 1 58 8 view .LVU58
  58:my_library/Src/traffic_light_functions.c ****          break;
 180              		.loc 1 58 32 is_stmt 0 view .LVU59
 181 0084 0022     		movs	r2, #0
 182 0086 1A70     		strb	r2, [r3]
  59:my_library/Src/traffic_light_functions.c ****    } // transitions
 183              		.loc 1 59 10 is_stmt 1 view .LVU60
 184 0088 CAE7     		b	.L9
 185              	.L20:
  63:my_library/Src/traffic_light_functions.c ****       case TL_off:
  64:my_library/Src/traffic_light_functions.c ****     	 HAL_GPIO_WritePin(GPIOD, GPIO_PIN_12, GPIO_PIN_RESET);
 186              		.loc 1 64 7 view .LVU61
 187 008a 284C     		ldr	r4, .L22
 188 008c 0022     		movs	r2, #0
 189 008e 4FF48051 		mov	r1, #4096
 190 0092 2046     		mov	r0, r4
 191 0094 FFF7FEFF 		bl	HAL_GPIO_WritePin
 192              	.LVL0:
  65:my_library/Src/traffic_light_functions.c ****     	 HAL_GPIO_WritePin(GPIOD, GPIO_PIN_13, GPIO_PIN_RESET);
 193              		.loc 1 65 7 view .LVU62
 194 0098 0022     		movs	r2, #0
 195 009a 4FF40051 		mov	r1, #8192
 196 009e 2046     		mov	r0, r4
 197 00a0 FFF7FEFF 		bl	HAL_GPIO_WritePin
 198              	.LVL1:
  66:my_library/Src/traffic_light_functions.c ****     	 HAL_GPIO_WritePin(GPIOD, GPIO_PIN_14, GPIO_PIN_RESET);
 199              		.loc 1 66 7 view .LVU63
 200 00a4 0022     		movs	r2, #0
 201 00a6 4FF48041 		mov	r1, #16384
 202 00aa 2046     		mov	r0, r4
 203 00ac FFF7FEFF 		bl	HAL_GPIO_WritePin
 204              	.LVL2:
  67:my_library/Src/traffic_light_functions.c ****          break;
 205              		.loc 1 67 10 view .LVU64
 206              	.L1:
  68:my_library/Src/traffic_light_functions.c ****       case TL_stop:
  69:my_library/Src/traffic_light_functions.c ****     	  HAL_GPIO_WritePin(GPIOD, GPIO_PIN_12, GPIO_PIN_RESET);
  70:my_library/Src/traffic_light_functions.c ****     	  HAL_GPIO_WritePin(GPIOD, GPIO_PIN_13, GPIO_PIN_RESET);
  71:my_library/Src/traffic_light_functions.c ****     	  HAL_GPIO_WritePin(GPIOD, GPIO_PIN_14, GPIO_PIN_SET);
  72:my_library/Src/traffic_light_functions.c ****          break;
  73:my_library/Src/traffic_light_functions.c ****       case TL_warn:
  74:my_library/Src/traffic_light_functions.c ****     	  HAL_GPIO_WritePin(GPIOD, GPIO_PIN_12, GPIO_PIN_RESET);
  75:my_library/Src/traffic_light_functions.c ****     	  HAL_GPIO_WritePin(GPIOD, GPIO_PIN_13, GPIO_PIN_SET);
  76:my_library/Src/traffic_light_functions.c ****     	  HAL_GPIO_WritePin(GPIOD, GPIO_PIN_14, GPIO_PIN_RESET);
  77:my_library/Src/traffic_light_functions.c ****          break;
  78:my_library/Src/traffic_light_functions.c ****       case TL_go:
  79:my_library/Src/traffic_light_functions.c ****     	  HAL_GPIO_WritePin(GPIOD, GPIO_PIN_12, GPIO_PIN_SET);
  80:my_library/Src/traffic_light_functions.c ****     	  HAL_GPIO_WritePin(GPIOD, GPIO_PIN_13, GPIO_PIN_RESET);
  81:my_library/Src/traffic_light_functions.c ****     	  HAL_GPIO_WritePin(GPIOD, GPIO_PIN_14, GPIO_PIN_RESET);
  82:my_library/Src/traffic_light_functions.c ****          break;
  83:my_library/Src/traffic_light_functions.c ****       default:
  84:my_library/Src/traffic_light_functions.c ****          break;
  85:my_library/Src/traffic_light_functions.c ****    } // state actions
  86:my_library/Src/traffic_light_functions.c **** }
 207              		.loc 1 86 1 is_stmt 0 view .LVU65
ARM GAS  /tmp/ccpbXR1M.s 			page 7


 208 00b0 04B0     		add	sp, sp, #16
 209              	.LCFI2:
 210              		.cfi_remember_state
 211              		.cfi_def_cfa_offset 8
 212              		@ sp needed
 213 00b2 10BD     		pop	{r4, pc}
 214              	.L19:
 215              	.LCFI3:
 216              		.cfi_restore_state
  69:my_library/Src/traffic_light_functions.c ****     	  HAL_GPIO_WritePin(GPIOD, GPIO_PIN_13, GPIO_PIN_RESET);
 217              		.loc 1 69 8 is_stmt 1 view .LVU66
 218 00b4 1D4C     		ldr	r4, .L22
 219 00b6 0022     		movs	r2, #0
 220 00b8 4FF48051 		mov	r1, #4096
 221 00bc 2046     		mov	r0, r4
 222 00be FFF7FEFF 		bl	HAL_GPIO_WritePin
 223              	.LVL3:
  70:my_library/Src/traffic_light_functions.c ****     	  HAL_GPIO_WritePin(GPIOD, GPIO_PIN_14, GPIO_PIN_SET);
 224              		.loc 1 70 8 view .LVU67
 225 00c2 0022     		movs	r2, #0
 226 00c4 4FF40051 		mov	r1, #8192
 227 00c8 2046     		mov	r0, r4
 228 00ca FFF7FEFF 		bl	HAL_GPIO_WritePin
 229              	.LVL4:
  71:my_library/Src/traffic_light_functions.c ****          break;
 230              		.loc 1 71 8 view .LVU68
 231 00ce 0122     		movs	r2, #1
 232 00d0 4FF48041 		mov	r1, #16384
 233 00d4 2046     		mov	r0, r4
 234 00d6 FFF7FEFF 		bl	HAL_GPIO_WritePin
 235              	.LVL5:
  72:my_library/Src/traffic_light_functions.c ****       case TL_warn:
 236              		.loc 1 72 10 view .LVU69
 237 00da E9E7     		b	.L1
 238              	.L18:
  74:my_library/Src/traffic_light_functions.c ****     	  HAL_GPIO_WritePin(GPIOD, GPIO_PIN_13, GPIO_PIN_SET);
 239              		.loc 1 74 8 view .LVU70
 240 00dc 134C     		ldr	r4, .L22
 241 00de 0022     		movs	r2, #0
 242 00e0 4FF48051 		mov	r1, #4096
 243 00e4 2046     		mov	r0, r4
 244 00e6 FFF7FEFF 		bl	HAL_GPIO_WritePin
 245              	.LVL6:
  75:my_library/Src/traffic_light_functions.c ****     	  HAL_GPIO_WritePin(GPIOD, GPIO_PIN_14, GPIO_PIN_RESET);
 246              		.loc 1 75 8 view .LVU71
 247 00ea 0122     		movs	r2, #1
 248 00ec 4FF40051 		mov	r1, #8192
 249 00f0 2046     		mov	r0, r4
 250 00f2 FFF7FEFF 		bl	HAL_GPIO_WritePin
 251              	.LVL7:
  76:my_library/Src/traffic_light_functions.c ****          break;
 252              		.loc 1 76 8 view .LVU72
 253 00f6 0022     		movs	r2, #0
 254 00f8 4FF48041 		mov	r1, #16384
 255 00fc 2046     		mov	r0, r4
 256 00fe FFF7FEFF 		bl	HAL_GPIO_WritePin
 257              	.LVL8:
ARM GAS  /tmp/ccpbXR1M.s 			page 8


  77:my_library/Src/traffic_light_functions.c ****       case TL_go:
 258              		.loc 1 77 10 view .LVU73
 259 0102 D5E7     		b	.L1
 260              	.L16:
  79:my_library/Src/traffic_light_functions.c ****     	  HAL_GPIO_WritePin(GPIOD, GPIO_PIN_13, GPIO_PIN_RESET);
 261              		.loc 1 79 8 view .LVU74
 262 0104 094C     		ldr	r4, .L22
 263 0106 0122     		movs	r2, #1
 264 0108 4FF48051 		mov	r1, #4096
 265 010c 2046     		mov	r0, r4
 266 010e FFF7FEFF 		bl	HAL_GPIO_WritePin
 267              	.LVL9:
  80:my_library/Src/traffic_light_functions.c ****     	  HAL_GPIO_WritePin(GPIOD, GPIO_PIN_14, GPIO_PIN_RESET);
 268              		.loc 1 80 8 view .LVU75
 269 0112 0022     		movs	r2, #0
 270 0114 4FF40051 		mov	r1, #8192
 271 0118 2046     		mov	r0, r4
 272 011a FFF7FEFF 		bl	HAL_GPIO_WritePin
 273              	.LVL10:
  81:my_library/Src/traffic_light_functions.c ****          break;
 274              		.loc 1 81 8 view .LVU76
 275 011e 0022     		movs	r2, #0
 276 0120 4FF48041 		mov	r1, #16384
 277 0124 2046     		mov	r0, r4
 278 0126 FFF7FEFF 		bl	HAL_GPIO_WritePin
 279              	.LVL11:
  82:my_library/Src/traffic_light_functions.c ****       default:
 280              		.loc 1 82 10 view .LVU77
 281              		.loc 1 86 1 is_stmt 0 view .LVU78
 282 012a C1E7     		b	.L1
 283              	.L23:
 284              		.align	2
 285              	.L22:
 286 012c 000C0240 		.word	1073875968
 287              		.cfi_endproc
 288              	.LFE133:
 290              		.section	.text.initialize_TLstruct,"ax",%progbits
 291              		.align	1
 292              		.global	initialize_TLstruct
 293              		.syntax unified
 294              		.thumb
 295              		.thumb_func
 297              	initialize_TLstruct:
 298              	.LVL12:
 299              	.LFB134:
  87:my_library/Src/traffic_light_functions.c **** 
  88:my_library/Src/traffic_light_functions.c **** 
  89:my_library/Src/traffic_light_functions.c **** 
  90:my_library/Src/traffic_light_functions.c **** TL_TaskData initialize_TLstruct(TL_STATE* tl_state, unsigned int* givenEnabler, unsigned int* given
 300              		.loc 1 90 112 is_stmt 1 view -0
 301              		.cfi_startproc
 302              		@ args = 0, pretend = 0, frame = 0
 303              		@ frame_needed = 0, uses_anonymous_args = 0
 304              		@ link register save eliminated.
  91:my_library/Src/traffic_light_functions.c ****    TL_TaskData tl_taskData = {givenEnabler, tl_state, givenPedestrian};
 305              		.loc 1 91 4 view .LVU80
 306              		.loc 1 91 16 is_stmt 0 view .LVU81
ARM GAS  /tmp/ccpbXR1M.s 			page 9


 307 0000 0260     		str	r2, [r0]
 308 0002 4160     		str	r1, [r0, #4]
 309 0004 8360     		str	r3, [r0, #8]
  92:my_library/Src/traffic_light_functions.c **** 	return tl_taskData;
 310              		.loc 1 92 2 is_stmt 1 view .LVU82
  93:my_library/Src/traffic_light_functions.c **** }
 311              		.loc 1 93 1 is_stmt 0 view .LVU83
 312 0006 7047     		bx	lr
 313              		.cfi_endproc
 314              	.LFE134:
 316              		.section	.text.button,"ax",%progbits
 317              		.align	1
 318              		.global	button
 319              		.syntax unified
 320              		.thumb
 321              		.thumb_func
 323              	button:
 324              	.LFB135:
  94:my_library/Src/traffic_light_functions.c **** 
  95:my_library/Src/traffic_light_functions.c **** // function declaration for an FSM that uses button presses to set and
  96:my_library/Src/traffic_light_functions.c **** // clear GPIO PL5
  97:my_library/Src/traffic_light_functions.c **** void button(B_TaskData b_task_data) {
 325              		.loc 1 97 37 is_stmt 1 view -0
 326              		.cfi_startproc
 327              		@ args = 0, pretend = 0, frame = 16
 328              		@ frame_needed = 0, uses_anonymous_args = 0
 329              		@ link register save eliminated.
 330 0000 84B0     		sub	sp, sp, #16
 331              	.LCFI4:
 332              		.cfi_def_cfa_offset 16
 333 0002 04AB     		add	r3, sp, #16
 334 0004 03E90700 		stmdb	r3, {r0, r1, r2}
  98:my_library/Src/traffic_light_functions.c ****    switch(*(b_task_data.B_State)) { // Transitions
 335              		.loc 1 98 4 view .LVU85
 336              		.loc 1 98 24 is_stmt 0 view .LVU86
 337 0008 1346     		mov	r3, r2
 338              		.loc 1 98 11 view .LVU87
 339 000a 1278     		ldrb	r2, [r2]	@ zero_extendqisi2
 340              		.loc 1 98 4 view .LVU88
 341 000c 042A     		cmp	r2, #4
 342 000e 32D8     		bhi	.L26
 343 0010 DFE802F0 		tbb	[pc, r2]
 344              	.L28:
 345 0014 03       		.byte	(.L32-.L28)/2
 346 0015 28       		.byte	(.L31-.L28)/2
 347 0016 16       		.byte	(.L30-.L28)/2
 348 0017 0D       		.byte	(.L29-.L28)/2
 349 0018 1F       		.byte	(.L27-.L28)/2
 350 0019 00       		.p2align 1
 351              	.L32:
  99:my_library/Src/traffic_light_functions.c ****       case B_SMStart: // Initial Transition
 100:my_library/Src/traffic_light_functions.c ****          *(b_task_data.B_State) = B_off_released;
 352              		.loc 1 100 10 is_stmt 1 view .LVU89
 353              		.loc 1 100 33 is_stmt 0 view .LVU90
 354 001a 0322     		movs	r2, #3
 355 001c 1A70     		strb	r2, [r3]
 101:my_library/Src/traffic_light_functions.c ****          break;
ARM GAS  /tmp/ccpbXR1M.s 			page 10


 356              		.loc 1 101 10 is_stmt 1 view .LVU91
 357              	.L33:
 102:my_library/Src/traffic_light_functions.c ****       case B_off_released:
 103:my_library/Src/traffic_light_functions.c ****          if (*(b_task_data.button_input)) { // test if switch PL1 was pressed
 104:my_library/Src/traffic_light_functions.c ****             *(b_task_data.B_State) = B_on_pressed;
 105:my_library/Src/traffic_light_functions.c ****             break;
 106:my_library/Src/traffic_light_functions.c ****          }
 107:my_library/Src/traffic_light_functions.c ****          else {
 108:my_library/Src/traffic_light_functions.c ****         	 *(b_task_data.B_State) = B_off_released;
 109:my_library/Src/traffic_light_functions.c ****             break;
 110:my_library/Src/traffic_light_functions.c ****          }
 111:my_library/Src/traffic_light_functions.c ****       case B_on_pressed:
 112:my_library/Src/traffic_light_functions.c ****          if (!(*b_task_data.button_input)) { // test if switch PL1 was not pressed
 113:my_library/Src/traffic_light_functions.c ****             *(b_task_data.B_State) = B_on_released;
 114:my_library/Src/traffic_light_functions.c ****             break;
 115:my_library/Src/traffic_light_functions.c ****          }
 116:my_library/Src/traffic_light_functions.c ****          else {
 117:my_library/Src/traffic_light_functions.c ****             *(b_task_data.B_State) = B_on_pressed;
 118:my_library/Src/traffic_light_functions.c ****             break;
 119:my_library/Src/traffic_light_functions.c ****          }
 120:my_library/Src/traffic_light_functions.c ****       case B_on_released:
 121:my_library/Src/traffic_light_functions.c ****          if (*(b_task_data.button_input)){
 122:my_library/Src/traffic_light_functions.c ****             *(b_task_data.B_State) = B_off_pressed;
 123:my_library/Src/traffic_light_functions.c ****             break;
 124:my_library/Src/traffic_light_functions.c ****          }
 125:my_library/Src/traffic_light_functions.c ****          else {
 126:my_library/Src/traffic_light_functions.c ****         	*(b_task_data.B_State) = B_on_released;
 127:my_library/Src/traffic_light_functions.c ****             break;
 128:my_library/Src/traffic_light_functions.c ****          }
 129:my_library/Src/traffic_light_functions.c ****       case B_off_pressed:
 130:my_library/Src/traffic_light_functions.c ****          if (!(*b_task_data.button_input)) {
 131:my_library/Src/traffic_light_functions.c ****         	*(b_task_data.B_State) = B_off_released;
 132:my_library/Src/traffic_light_functions.c ****         	break;
 133:my_library/Src/traffic_light_functions.c ****          }
 134:my_library/Src/traffic_light_functions.c ****          else {
 135:my_library/Src/traffic_light_functions.c ****         	*(b_task_data.B_State) = B_off_pressed;
 136:my_library/Src/traffic_light_functions.c ****             break;
 137:my_library/Src/traffic_light_functions.c ****          }
 138:my_library/Src/traffic_light_functions.c ****       default:
 139:my_library/Src/traffic_light_functions.c ****     	 *(b_task_data.B_State) = B_SMStart;
 140:my_library/Src/traffic_light_functions.c ****          break;
 141:my_library/Src/traffic_light_functions.c ****    } // Transitions
 142:my_library/Src/traffic_light_functions.c **** 
 143:my_library/Src/traffic_light_functions.c ****       switch(*(b_task_data.B_State)) { // State actions
 358              		.loc 1 143 7 view .LVU92
 359              		.loc 1 143 14 is_stmt 0 view .LVU93
 360 001e 1B78     		ldrb	r3, [r3]	@ zero_extendqisi2
 361              		.loc 1 143 7 view .LVU94
 362 0020 013B     		subs	r3, r3, #1
 363 0022 032B     		cmp	r3, #3
 364 0024 2DD8     		bhi	.L25
 365 0026 DFE803F0 		tbb	[pc, r3]
 366              	.L40:
 367 002a 36       		.byte	(.L43-.L40)/2
 368 002b 2E       		.byte	(.L42-.L40)/2
 369 002c 29       		.byte	(.L41-.L40)/2
 370 002d 32       		.byte	(.L39-.L40)/2
ARM GAS  /tmp/ccpbXR1M.s 			page 11


 371              		.p2align 1
 372              	.L29:
 103:my_library/Src/traffic_light_functions.c ****             *(b_task_data.B_State) = B_on_pressed;
 373              		.loc 1 103 10 is_stmt 1 view .LVU95
 103:my_library/Src/traffic_light_functions.c ****             *(b_task_data.B_State) = B_on_pressed;
 374              		.loc 1 103 27 is_stmt 0 view .LVU96
 375 002e 029A     		ldr	r2, [sp, #8]
 103:my_library/Src/traffic_light_functions.c ****             *(b_task_data.B_State) = B_on_pressed;
 376              		.loc 1 103 14 view .LVU97
 377 0030 1268     		ldr	r2, [r2]
 103:my_library/Src/traffic_light_functions.c ****             *(b_task_data.B_State) = B_on_pressed;
 378              		.loc 1 103 13 view .LVU98
 379 0032 12B1     		cbz	r2, .L34
 104:my_library/Src/traffic_light_functions.c ****             break;
 380              		.loc 1 104 13 is_stmt 1 view .LVU99
 104:my_library/Src/traffic_light_functions.c ****             break;
 381              		.loc 1 104 36 is_stmt 0 view .LVU100
 382 0034 0222     		movs	r2, #2
 383 0036 1A70     		strb	r2, [r3]
 105:my_library/Src/traffic_light_functions.c ****          }
 384              		.loc 1 105 13 is_stmt 1 view .LVU101
 385 0038 F1E7     		b	.L33
 386              	.L34:
 108:my_library/Src/traffic_light_functions.c ****             break;
 387              		.loc 1 108 11 view .LVU102
 108:my_library/Src/traffic_light_functions.c ****             break;
 388              		.loc 1 108 34 is_stmt 0 view .LVU103
 389 003a 0322     		movs	r2, #3
 390 003c 1A70     		strb	r2, [r3]
 109:my_library/Src/traffic_light_functions.c ****          }
 391              		.loc 1 109 13 is_stmt 1 view .LVU104
 392 003e EEE7     		b	.L33
 393              	.L30:
 112:my_library/Src/traffic_light_functions.c ****             *(b_task_data.B_State) = B_on_released;
 394              		.loc 1 112 10 view .LVU105
 112:my_library/Src/traffic_light_functions.c ****             *(b_task_data.B_State) = B_on_released;
 395              		.loc 1 112 28 is_stmt 0 view .LVU106
 396 0040 029A     		ldr	r2, [sp, #8]
 112:my_library/Src/traffic_light_functions.c ****             *(b_task_data.B_State) = B_on_released;
 397              		.loc 1 112 16 view .LVU107
 398 0042 1268     		ldr	r2, [r2]
 112:my_library/Src/traffic_light_functions.c ****             *(b_task_data.B_State) = B_on_released;
 399              		.loc 1 112 13 view .LVU108
 400 0044 12B9     		cbnz	r2, .L35
 113:my_library/Src/traffic_light_functions.c ****             break;
 401              		.loc 1 113 13 is_stmt 1 view .LVU109
 113:my_library/Src/traffic_light_functions.c ****             break;
 402              		.loc 1 113 36 is_stmt 0 view .LVU110
 403 0046 0422     		movs	r2, #4
 404 0048 1A70     		strb	r2, [r3]
 114:my_library/Src/traffic_light_functions.c ****          }
 405              		.loc 1 114 13 is_stmt 1 view .LVU111
 406 004a E8E7     		b	.L33
 407              	.L35:
 117:my_library/Src/traffic_light_functions.c ****             break;
 408              		.loc 1 117 13 view .LVU112
 117:my_library/Src/traffic_light_functions.c ****             break;
ARM GAS  /tmp/ccpbXR1M.s 			page 12


 409              		.loc 1 117 36 is_stmt 0 view .LVU113
 410 004c 0222     		movs	r2, #2
 411 004e 1A70     		strb	r2, [r3]
 118:my_library/Src/traffic_light_functions.c ****          }
 412              		.loc 1 118 13 is_stmt 1 view .LVU114
 413 0050 E5E7     		b	.L33
 414              	.L27:
 121:my_library/Src/traffic_light_functions.c ****             *(b_task_data.B_State) = B_off_pressed;
 415              		.loc 1 121 10 view .LVU115
 121:my_library/Src/traffic_light_functions.c ****             *(b_task_data.B_State) = B_off_pressed;
 416              		.loc 1 121 27 is_stmt 0 view .LVU116
 417 0052 029A     		ldr	r2, [sp, #8]
 121:my_library/Src/traffic_light_functions.c ****             *(b_task_data.B_State) = B_off_pressed;
 418              		.loc 1 121 14 view .LVU117
 419 0054 1268     		ldr	r2, [r2]
 121:my_library/Src/traffic_light_functions.c ****             *(b_task_data.B_State) = B_off_pressed;
 420              		.loc 1 121 13 view .LVU118
 421 0056 12B1     		cbz	r2, .L36
 122:my_library/Src/traffic_light_functions.c ****             break;
 422              		.loc 1 122 13 is_stmt 1 view .LVU119
 122:my_library/Src/traffic_light_functions.c ****             break;
 423              		.loc 1 122 36 is_stmt 0 view .LVU120
 424 0058 0122     		movs	r2, #1
 425 005a 1A70     		strb	r2, [r3]
 123:my_library/Src/traffic_light_functions.c ****          }
 426              		.loc 1 123 13 is_stmt 1 view .LVU121
 427 005c DFE7     		b	.L33
 428              	.L36:
 126:my_library/Src/traffic_light_functions.c ****             break;
 429              		.loc 1 126 10 view .LVU122
 126:my_library/Src/traffic_light_functions.c ****             break;
 430              		.loc 1 126 33 is_stmt 0 view .LVU123
 431 005e 0422     		movs	r2, #4
 432 0060 1A70     		strb	r2, [r3]
 127:my_library/Src/traffic_light_functions.c ****          }
 433              		.loc 1 127 13 is_stmt 1 view .LVU124
 434 0062 DCE7     		b	.L33
 435              	.L31:
 130:my_library/Src/traffic_light_functions.c ****         	*(b_task_data.B_State) = B_off_released;
 436              		.loc 1 130 10 view .LVU125
 130:my_library/Src/traffic_light_functions.c ****         	*(b_task_data.B_State) = B_off_released;
 437              		.loc 1 130 28 is_stmt 0 view .LVU126
 438 0064 029A     		ldr	r2, [sp, #8]
 130:my_library/Src/traffic_light_functions.c ****         	*(b_task_data.B_State) = B_off_released;
 439              		.loc 1 130 16 view .LVU127
 440 0066 1268     		ldr	r2, [r2]
 130:my_library/Src/traffic_light_functions.c ****         	*(b_task_data.B_State) = B_off_released;
 441              		.loc 1 130 13 view .LVU128
 442 0068 12B9     		cbnz	r2, .L37
 131:my_library/Src/traffic_light_functions.c ****         	break;
 443              		.loc 1 131 10 is_stmt 1 view .LVU129
 131:my_library/Src/traffic_light_functions.c ****         	break;
 444              		.loc 1 131 33 is_stmt 0 view .LVU130
 445 006a 0322     		movs	r2, #3
 446 006c 1A70     		strb	r2, [r3]
 132:my_library/Src/traffic_light_functions.c ****          }
 447              		.loc 1 132 10 is_stmt 1 view .LVU131
ARM GAS  /tmp/ccpbXR1M.s 			page 13


 448 006e D6E7     		b	.L33
 449              	.L37:
 135:my_library/Src/traffic_light_functions.c ****             break;
 450              		.loc 1 135 10 view .LVU132
 135:my_library/Src/traffic_light_functions.c ****             break;
 451              		.loc 1 135 33 is_stmt 0 view .LVU133
 452 0070 0122     		movs	r2, #1
 453 0072 1A70     		strb	r2, [r3]
 136:my_library/Src/traffic_light_functions.c ****          }
 454              		.loc 1 136 13 is_stmt 1 view .LVU134
 455 0074 D3E7     		b	.L33
 456              	.L26:
 139:my_library/Src/traffic_light_functions.c ****          break;
 457              		.loc 1 139 7 view .LVU135
 139:my_library/Src/traffic_light_functions.c ****          break;
 458              		.loc 1 139 30 is_stmt 0 view .LVU136
 459 0076 0022     		movs	r2, #0
 460 0078 1A70     		strb	r2, [r3]
 140:my_library/Src/traffic_light_functions.c ****    } // Transitions
 461              		.loc 1 140 10 is_stmt 1 view .LVU137
 462 007a D0E7     		b	.L33
 463              	.L41:
 144:my_library/Src/traffic_light_functions.c ****          case B_off_released:
 145:my_library/Src/traffic_light_functions.c ****             *(b_task_data.button_output) = 0;
 464              		.loc 1 145 13 view .LVU138
 465              		.loc 1 145 42 is_stmt 0 view .LVU139
 466 007c 019B     		ldr	r3, [sp, #4]
 467 007e 0022     		movs	r2, #0
 468 0080 1A60     		str	r2, [r3]
 146:my_library/Src/traffic_light_functions.c ****             break;
 469              		.loc 1 146 13 is_stmt 1 view .LVU140
 470              	.L25:
 147:my_library/Src/traffic_light_functions.c ****          case B_on_pressed:
 148:my_library/Src/traffic_light_functions.c ****          	*(b_task_data.button_output) = 1;
 149:my_library/Src/traffic_light_functions.c ****             break;
 150:my_library/Src/traffic_light_functions.c ****          case B_on_released:
 151:my_library/Src/traffic_light_functions.c ****         	*(b_task_data.button_output) = 1;
 152:my_library/Src/traffic_light_functions.c ****             break;
 153:my_library/Src/traffic_light_functions.c ****          case B_off_pressed:
 154:my_library/Src/traffic_light_functions.c ****         	*(b_task_data.button_output) = 0;
 155:my_library/Src/traffic_light_functions.c ****             break;
 156:my_library/Src/traffic_light_functions.c ****          default:
 157:my_library/Src/traffic_light_functions.c ****             break;
 158:my_library/Src/traffic_light_functions.c ****       } // State actions
 159:my_library/Src/traffic_light_functions.c **** }
 471              		.loc 1 159 1 is_stmt 0 view .LVU141
 472 0082 04B0     		add	sp, sp, #16
 473              	.LCFI5:
 474              		.cfi_remember_state
 475              		.cfi_def_cfa_offset 0
 476              		@ sp needed
 477 0084 7047     		bx	lr
 478              	.L42:
 479              	.LCFI6:
 480              		.cfi_restore_state
 148:my_library/Src/traffic_light_functions.c ****             break;
 481              		.loc 1 148 11 is_stmt 1 view .LVU142
ARM GAS  /tmp/ccpbXR1M.s 			page 14


 148:my_library/Src/traffic_light_functions.c ****             break;
 482              		.loc 1 148 40 is_stmt 0 view .LVU143
 483 0086 019B     		ldr	r3, [sp, #4]
 484 0088 0122     		movs	r2, #1
 485 008a 1A60     		str	r2, [r3]
 149:my_library/Src/traffic_light_functions.c ****          case B_on_released:
 486              		.loc 1 149 13 is_stmt 1 view .LVU144
 487 008c F9E7     		b	.L25
 488              	.L39:
 151:my_library/Src/traffic_light_functions.c ****             break;
 489              		.loc 1 151 10 view .LVU145
 151:my_library/Src/traffic_light_functions.c ****             break;
 490              		.loc 1 151 39 is_stmt 0 view .LVU146
 491 008e 019B     		ldr	r3, [sp, #4]
 492 0090 0122     		movs	r2, #1
 493 0092 1A60     		str	r2, [r3]
 152:my_library/Src/traffic_light_functions.c ****          case B_off_pressed:
 494              		.loc 1 152 13 is_stmt 1 view .LVU147
 495 0094 F5E7     		b	.L25
 496              	.L43:
 154:my_library/Src/traffic_light_functions.c ****             break;
 497              		.loc 1 154 10 view .LVU148
 154:my_library/Src/traffic_light_functions.c ****             break;
 498              		.loc 1 154 39 is_stmt 0 view .LVU149
 499 0096 019B     		ldr	r3, [sp, #4]
 500 0098 0022     		movs	r2, #0
 501 009a 1A60     		str	r2, [r3]
 155:my_library/Src/traffic_light_functions.c ****          default:
 502              		.loc 1 155 13 is_stmt 1 view .LVU150
 503              		.loc 1 159 1 is_stmt 0 view .LVU151
 504 009c F1E7     		b	.L25
 505              		.cfi_endproc
 506              	.LFE135:
 508              		.section	.text.initialize_Bstruct,"ax",%progbits
 509              		.align	1
 510              		.global	initialize_Bstruct
 511              		.syntax unified
 512              		.thumb
 513              		.thumb_func
 515              	initialize_Bstruct:
 516              	.LVL13:
 517              	.LFB136:
 160:my_library/Src/traffic_light_functions.c **** 
 161:my_library/Src/traffic_light_functions.c **** B_TaskData initialize_Bstruct(unsigned int* output, unsigned int* input, B_STATE* B_State) {
 518              		.loc 1 161 92 is_stmt 1 view -0
 519              		.cfi_startproc
 520              		@ args = 0, pretend = 0, frame = 0
 521              		@ frame_needed = 0, uses_anonymous_args = 0
 522              		@ link register save eliminated.
 162:my_library/Src/traffic_light_functions.c **** 	B_TaskData b_taskdata = {output, input, B_State};
 523              		.loc 1 162 2 view .LVU153
 524              		.loc 1 162 13 is_stmt 0 view .LVU154
 525 0000 0160     		str	r1, [r0]
 526 0002 4260     		str	r2, [r0, #4]
 527 0004 8360     		str	r3, [r0, #8]
 163:my_library/Src/traffic_light_functions.c **** 	return b_taskdata;
 528              		.loc 1 163 2 is_stmt 1 view .LVU155
ARM GAS  /tmp/ccpbXR1M.s 			page 15


 164:my_library/Src/traffic_light_functions.c **** }
 529              		.loc 1 164 1 is_stmt 0 view .LVU156
 530 0006 7047     		bx	lr
 531              		.cfi_endproc
 532              	.LFE136:
 534              		.text
 535              	.Letext0:
 536              		.file 2 "/opt/gcc-arm/arm-none-eabi/include/machine/_default_types.h"
 537              		.file 3 "/opt/gcc-arm/arm-none-eabi/include/sys/_stdint.h"
 538              		.file 4 "Drivers/CMSIS/Device/ST/STM32F4xx/Include/stm32f407xx.h"
 539              		.file 5 "my_library/Inc/traffic_light_functions.h"
 540              		.file 6 "Drivers/STM32F4xx_HAL_Driver/Inc/stm32f4xx_hal_gpio.h"
ARM GAS  /tmp/ccpbXR1M.s 			page 16

